; Function Attrs: mustprogress nounwind uwtable
define void @_ZN3g2o30OptimizationAlgorithmLevenbergD2Ev(ptr noundef nonnull align 8 dereferenceable(152) initializes((0, 8)) %0) unnamed_addr #5 align 2 personality ptr @__gxx_personality_v0 {
  store ptr getelementptr inbounds nuw inrange(-16, 88) (i8, ptr @_ZTVN3g2o30OptimizationAlgorithmLevenbergE, i64 16), ptr %0, align 8, !tbaa !8
  %2 = getelementptr inbounds nuw i8, ptr %0, i64 144
  %3 = load ptr, ptr %2, align 8, !tbaa !3
  %.not.i = icmp eq ptr %3, null
  br i1 %.not.i, label %_ZNSt10unique_ptrIN3g2o6SolverESt14default_deleteIS1_EED2Ev.exit, label %_ZNKSt14default_deleteIN3g2o6SolverEEclEPS1_.exit.i

_ZNKSt14default_deleteIN3g2o6SolverEEclEPS1_.exit.i: ; preds = %1
  %4 = load ptr, ptr %3, align 8, !tbaa !8
  %5 = getelementptr inbounds nuw i8, ptr %4, i64 8
  %6 = load ptr, ptr %5, align 8
  tail call void %6(ptr noundef nonnull align 8 dereferenceable(64) %3) #20
  br label %_ZNSt10unique_ptrIN3g2o6SolverESt14default_deleteIS1_EED2Ev.exit

_ZNSt10unique_ptrIN3g2o6SolverESt14default_deleteIS1_EED2Ev.exit: ; preds = %1, %_ZNKSt14default_deleteIN3g2o6SolverEEclEPS1_.exit.i
  store ptr null, ptr %2, align 8, !tbaa !3
  tail call void @_ZN3g2o32OptimizationAlgorithmWithHessianD2Ev(ptr noundef nonnull align 8 dereferenceable(80) %0) #20
  ret void
}